target datalayout = "e-m:e-p270:32:32-p271:32:32-p272:64:64-i64:64-i128:128-f80:128-n8:16:32:64-S128"
target triple = "x86_64-pc-linux-gnu"

%struct._zend_refcounted_h = type { i32, %union.anon }
%union.anon = type { i32 }
%struct._zval_struct = type { %union._zend_value, %union.anon.3, %union.anon.6 }
%union._zend_value = type { i64 }
%union.anon.3 = type { i32 }
%union.anon.6 = type { i32 }
%struct._zend_string = type { %struct._zend_refcounted_h, i64, i64, [1 x i8] }
%struct._zend_execute_data = type { ptr, ptr, ptr, ptr, %struct._zval_struct, ptr, ptr, ptr, ptr }

@.str.128 = private unnamed_addr constant [2 x i8] c"a\00", align 1

; Function Attrs: nounwind uwtable
define hidden void @zif_php_uname(ptr noundef %0, ptr noundef %1) #0 {
  %3 = alloca ptr, align 8
  %4 = alloca ptr, align 8
  %5 = alloca i1, align 1
  %6 = alloca ptr, align 8
  %7 = alloca ptr, align 8
  %8 = alloca i8, align 1
  %9 = alloca i32, align 4
  %10 = alloca i8, align 1
  %11 = alloca ptr, align 8
  %12 = alloca ptr, align 8
  %13 = alloca i8, align 1
  %14 = alloca i32, align 4
  %15 = alloca i32, align 4
  %16 = alloca i1, align 1
  %17 = alloca ptr, align 8
  %18 = alloca ptr, align 8
  %19 = alloca ptr, align 8
  %20 = alloca i8, align 1
  %21 = alloca i32, align 4
  %22 = alloca ptr, align 8
  %23 = alloca ptr, align 8
  %24 = alloca ptr, align 8
  %25 = alloca ptr, align 8
  %26 = alloca i64, align 8
  %27 = alloca i32, align 4
  %28 = alloca i32, align 4
  %29 = alloca i32, align 4
  %30 = alloca i32, align 4
  %31 = alloca i32, align 4
  %32 = alloca ptr, align 8
  %33 = alloca ptr, align 8
  %34 = alloca i32, align 4
  %35 = alloca ptr, align 8
  %36 = alloca i8, align 1
  %37 = alloca i8, align 1
  %38 = alloca i32, align 4
  %39 = alloca ptr, align 8
  %40 = alloca ptr, align 8
  store ptr %0, ptr %23, align 8
  store ptr %1, ptr %24, align 8
  store ptr @.str.128, ptr %25, align 8
  store i64 1, ptr %26, align 8
  br label %41

41:                                               ; preds = %2
  store i32 0, ptr %27, align 4
  store i32 0, ptr %28, align 4
  store i32 1, ptr %29, align 4
  %42 = load ptr, ptr %23, align 8
  %43 = getelementptr inbounds %struct._zend_execute_data, ptr %42, i32 0, i32 4
  %44 = getelementptr inbounds %struct._zval_struct, ptr %43, i32 0, i32 2
  %45 = load i32, ptr %44, align 4
  store i32 %45, ptr %30, align 4
  store i32 0, ptr %31, align 4
  store ptr null, ptr %33, align 8
  store i32 0, ptr %34, align 4
  store ptr null, ptr %35, align 8
  store i8 0, ptr %36, align 1
  store i8 0, ptr %37, align 1
  store i32 0, ptr %38, align 4
  br label %46

46:                                               ; preds = %41
  %47 = load i32, ptr %30, align 4
  %48 = load i32, ptr %28, align 4
  %49 = icmp ult i32 %47, %48
  %50 = xor i1 %49, true
  %51 = xor i1 %50, true
  %52 = zext i1 %51 to i32
  %53 = sext i32 %52 to i64
  %54 = icmp ne i64 %53, 0
  br i1 %54, label %64, label %55

55:                                               ; preds = %46
  %56 = load i32, ptr %30, align 4
  %57 = load i32, ptr %29, align 4
  %58 = icmp ugt i32 %56, %57
  %59 = xor i1 %58, true
  %60 = xor i1 %59, true
  %61 = zext i1 %60 to i32
  %62 = sext i32 %61 to i64
  %63 = icmp ne i64 %62, 0
  br i1 %63, label %64, label %67

64:                                               ; preds = %55, %46
  %65 = load i32, ptr %28, align 4
  %66 = load i32, ptr %29, align 4
  call void @zend_wrong_parameters_count_error(i32 noundef %65, i32 noundef %66)
  store i32 1, ptr %38, align 4
  br label %198

67:                                               ; preds = %55
  %68 = load ptr, ptr %23, align 8
  %69 = getelementptr inbounds %struct._zval_struct, ptr %68, i64 4
  store ptr %69, ptr %32, align 8
  store i8 1, ptr %37, align 1
  %70 = load i32, ptr %31, align 4
  %71 = add i32 %70, 1
  store i32 %71, ptr %31, align 4
  %72 = load i32, ptr %31, align 4
  %73 = load i32, ptr %28, align 4
  %74 = icmp ule i32 %72, %73
  br i1 %74, label %80, label %75

75:                                               ; preds = %67
  %76 = load i8, ptr %37, align 1
  %77 = trunc i8 %76 to i1
  %78 = zext i1 %77 to i32
  %79 = icmp eq i32 %78, 1
  br label %80

80:                                               ; preds = %75, %67
  %81 = phi i1 [ true, %67 ], [ %79, %75 ]
  call void @llvm.assume(i1 %81)
  %82 = load i32, ptr %31, align 4
  %83 = load i32, ptr %28, align 4
  %84 = icmp ugt i32 %82, %83
  br i1 %84, label %90, label %85

85:                                               ; preds = %80
  %86 = load i8, ptr %37, align 1
  %87 = trunc i8 %86 to i1
  %88 = zext i1 %87 to i32
  %89 = icmp eq i32 %88, 0
  br label %90

90:                                               ; preds = %85, %80
  %91 = phi i1 [ true, %80 ], [ %89, %85 ]
  call void @llvm.assume(i1 %91)
  %92 = load i8, ptr %37, align 1
  %93 = trunc i8 %92 to i1
  br i1 %93, label %94, label %105

94:                                               ; preds = %90
  %95 = load i32, ptr %31, align 4
  %96 = load i32, ptr %30, align 4
  %97 = icmp ugt i32 %95, %96
  %98 = xor i1 %97, true
  %99 = xor i1 %98, true
  %100 = zext i1 %99 to i32
  %101 = sext i32 %100 to i64
  %102 = icmp ne i64 %101, 0
  br i1 %102, label %103, label %104

103:                                              ; preds = %94
  br label %198

104:                                              ; preds = %94
  br label %105

105:                                              ; preds = %104, %90
  %106 = load ptr, ptr %32, align 8
  %107 = getelementptr inbounds %struct._zval_struct, ptr %106, i32 1
  store ptr %107, ptr %32, align 8
  %108 = load ptr, ptr %32, align 8
  store ptr %108, ptr %33, align 8
  %109 = load ptr, ptr %33, align 8
  %110 = load i32, ptr %31, align 4
  store ptr %109, ptr %17, align 8
  store ptr %25, ptr %18, align 8
  store ptr %26, ptr %19, align 8
  store i8 0, ptr %20, align 1
  store i32 %110, ptr %21, align 4
  %111 = load ptr, ptr %17, align 8
  %112 = load i8, ptr %20, align 1
  %113 = trunc i8 %112 to i1
  %114 = load i32, ptr %21, align 4
  store ptr %111, ptr %11, align 8
  store ptr %22, ptr %12, align 8
  %115 = zext i1 %113 to i8
  store i8 %115, ptr %13, align 1
  store i32 %114, ptr %14, align 4
  %116 = load ptr, ptr %11, align 8
  %117 = load ptr, ptr %12, align 8
  %118 = load i8, ptr %13, align 1
  %119 = trunc i8 %118 to i1
  %120 = load i32, ptr %14, align 4
  store ptr %116, ptr %6, align 8
  store ptr %117, ptr %7, align 8
  %121 = zext i1 %119 to i8
  store i8 %121, ptr %8, align 1
  store i32 %120, ptr %9, align 4
  store i8 0, ptr %10, align 1
  %122 = load ptr, ptr %6, align 8
  store ptr %122, ptr %3, align 8
  %123 = load ptr, ptr %3, align 8
  %124 = getelementptr inbounds %struct._zval_struct, ptr %123, i32 0, i32 1
  %125 = load i8, ptr %124, align 8
  %126 = zext i8 %125 to i32
  %127 = icmp eq i32 %126, 6
  br i1 %127, label %128, label %132

128:                                              ; preds = %105
  %129 = load ptr, ptr %6, align 8
  %130 = load ptr, ptr %129, align 8
  %131 = load ptr, ptr %7, align 8
  store ptr %130, ptr %131, align 8
  br label %157

132:                                              ; preds = %105
  %133 = load i8, ptr %8, align 1
  %134 = trunc i8 %133 to i1
  br i1 %134, label %135, label %144

135:                                              ; preds = %132
  %136 = load ptr, ptr %6, align 8
  store ptr %136, ptr %4, align 8
  %137 = load ptr, ptr %4, align 8
  %138 = getelementptr inbounds %struct._zval_struct, ptr %137, i32 0, i32 1
  %139 = load i8, ptr %138, align 8
  %140 = zext i8 %139 to i32
  %141 = icmp eq i32 %140, 1
  br i1 %141, label %142, label %144

142:                                              ; preds = %135
  %143 = load ptr, ptr %7, align 8
  store ptr null, ptr %143, align 8
  br label %157

144:                                              ; preds = %135, %132
  %145 = load i8, ptr %10, align 1
  %146 = trunc i8 %145 to i1
  br i1 %146, label %147, label %152

147:                                              ; preds = %144
  %148 = load ptr, ptr %6, align 8
  %149 = load ptr, ptr %7, align 8
  %150 = load i32, ptr %9, align 4
  %151 = call zeroext i1 @zend_flf_parse_arg_str_slow(ptr noundef %148, ptr noundef %149, i32 noundef %150) #10
  store i1 %151, ptr %5, align 1
  br label %158

152:                                              ; preds = %144
  %153 = load ptr, ptr %6, align 8
  %154 = load ptr, ptr %7, align 8
  %155 = load i32, ptr %9, align 4
  %156 = call zeroext i1 @zend_parse_arg_str_slow(ptr noundef %153, ptr noundef %154, i32 noundef %155) #10
  store i1 %156, ptr %5, align 1
  br label %158

157:                                              ; preds = %142, %128
  store i1 true, ptr %5, align 1
  br label %158

158:                                              ; preds = %157, %152, %147
  %159 = load i1, ptr %5, align 1
  br i1 %159, label %161, label %160

160:                                              ; preds = %158
  store i1 false, ptr %16, align 1
  br label %180

161:                                              ; preds = %158
  %162 = load i8, ptr %20, align 1
  %163 = trunc i8 %162 to i1
  br i1 %163, label %164, label %171

164:                                              ; preds = %161
  %165 = load ptr, ptr %22, align 8
  %166 = icmp ne ptr %165, null
  %167 = xor i1 %166, true
  br i1 %167, label %168, label %171

168:                                              ; preds = %164
  %169 = load ptr, ptr %18, align 8
  store ptr null, ptr %169, align 8
  %170 = load ptr, ptr %19, align 8
  store i64 0, ptr %170, align 8
  br label %179

171:                                              ; preds = %164, %161
  %172 = load ptr, ptr %22, align 8
  %173 = getelementptr inbounds %struct._zend_string, ptr %172, i32 0, i32 3
  %174 = load ptr, ptr %18, align 8
  store ptr %173, ptr %174, align 8
  %175 = load ptr, ptr %22, align 8
  %176 = getelementptr inbounds %struct._zend_string, ptr %175, i32 0, i32 2
  %177 = load i64, ptr %176, align 8
  %178 = load ptr, ptr %19, align 8
  store i64 %177, ptr %178, align 8
  br label %179

179:                                              ; preds = %171, %168
  store i1 true, ptr %16, align 1
  br label %180

180:                                              ; preds = %179, %160
  %181 = load i1, ptr %16, align 1
  %182 = xor i1 %181, true
  %183 = xor i1 %182, true
  %184 = xor i1 %183, true
  %185 = zext i1 %184 to i32
  %186 = sext i32 %185 to i64
  %187 = icmp ne i64 %186, 0
  br i1 %187, label %188, label %189

188:                                              ; preds = %180
  store i32 4, ptr %34, align 4
  store i32 9, ptr %38, align 4
  br label %198

189:                                              ; preds = %180
  %190 = load i32, ptr %31, align 4
  %191 = load i32, ptr %29, align 4
  %192 = icmp eq i32 %190, %191
  br i1 %192, label %196, label %193

193:                                              ; preds = %189
  %194 = load i32, ptr %29, align 4
  %195 = icmp eq i32 %194, -1
  br label %196

196:                                              ; preds = %193, %189
  %197 = phi i1 [ true, %189 ], [ %195, %193 ]
  call void @llvm.assume(i1 %197)
  br label %198

198:                                              ; preds = %196, %188, %103, %64
  %199 = load i32, ptr %38, align 4
  %200 = icmp ne i32 %199, 0
  %201 = xor i1 %200, true
  %202 = xor i1 %201, true
  %203 = zext i1 %202 to i32
  %204 = sext i32 %203 to i64
  %205 = icmp ne i64 %204, 0
  br i1 %205, label %206, label %212

206:                                              ; preds = %198
  %207 = load i32, ptr %38, align 4
  %208 = load i32, ptr %31, align 4
  %209 = load ptr, ptr %35, align 8
  %210 = load i32, ptr %34, align 4
  %211 = load ptr, ptr %33, align 8
  call void @zend_wrong_parameter_error(i32 noundef %207, i32 noundef %208, ptr noundef %209, i32 noundef %210, ptr noundef %211)
  br label %235

212:                                              ; preds = %198
  br label %213

213:                                              ; preds = %212
  br label %214

214:                                              ; preds = %213
  br label %215

215:                                              ; preds = %214
  %216 = load ptr, ptr %24, align 8
  store ptr %216, ptr %39, align 8
  %217 = load ptr, ptr %25, align 8
  %218 = load i8, ptr %217, align 1
  %219 = call ptr @php_get_uname(i8 noundef signext %218)
  store ptr %219, ptr %40, align 8
  %220 = load ptr, ptr %40, align 8
  %221 = load ptr, ptr %39, align 8
  %222 = getelementptr inbounds %struct._zval_struct, ptr %221, i32 0, i32 0
  store ptr %220, ptr %222, align 8
  %223 = load ptr, ptr %40, align 8
  %224 = getelementptr inbounds %struct._zend_string, ptr %223, i32 0, i32 0
  %225 = getelementptr inbounds %struct._zend_refcounted_h, ptr %224, i32 0, i32 1
  %226 = load i32, ptr %225, align 4
  store i32 %226, ptr %15, align 4
  %227 = load i32, ptr %15, align 4
  %228 = and i32 %227, 1008
  %229 = and i32 %228, 64
  %230 = icmp ne i32 %229, 0
  %231 = select i1 %230, i32 6, i32 262
  %232 = load ptr, ptr %39, align 8
  %233 = getelementptr inbounds %struct._zval_struct, ptr %232, i32 0, i32 1
  store i32 %231, ptr %233, align 8
  br label %234

234:                                              ; preds = %215
  br label %235

235:                                              ; preds = %234, %206
  ret void
}