; Function Attrs: nounwind uwtable
define hidden void @zif_php_uname(ptr noundef %0, ptr nocapture noundef writeonly %1) local_unnamed_addr #0 {
  %3 = alloca ptr, align 8
  %4 = getelementptr inbounds i8, ptr %0, i64 44
  %5 = load i32, ptr %4, align 4
  %6 = icmp ugt i32 %5, 1
  br i1 %6, label %7, label %8

7:                                                ; preds = %2
  tail call void @zend_wrong_parameters_count_error(i32 noundef 0, i32 noundef 1) #14
  br label %21

8:                                                ; preds = %2
  %9 = icmp eq i32 %5, 0
  br i1 %9, label %22, label %10

10:                                               ; preds = %8
  %11 = getelementptr inbounds i8, ptr %0, i64 80
  %12 = getelementptr inbounds i8, ptr %0, i64 88
  %13 = load i8, ptr %12, align 8
  %14 = icmp eq i8 %13, 6
  br i1 %14, label %.thread, label %17

.thread:                                          ; preds = %10
  %15 = load ptr, ptr %11, align 8
  store ptr %15, ptr %3, align 8
  %16 = getelementptr inbounds i8, ptr %15, i64 24
  br label %22

17:                                               ; preds = %10
  %18 = call zeroext i1 @zend_parse_arg_str_slow(ptr noundef nonnull %11, ptr noundef nonnull %3, i32 noundef 1) #14
  %19 = load ptr, ptr %3, align 8
  %20 = getelementptr inbounds i8, ptr %19, i64 24
  br i1 %18, label %22, label %21

21:                                               ; preds = %7, %17
  %.069 = phi ptr [ null, %7 ], [ %11, %17 ]
  %.068 = phi i32 [ 0, %7 ], [ 4, %17 ]
  %.067 = phi i32 [ 0, %7 ], [ 1, %17 ]
  %.066 = phi i32 [ 1, %7 ], [ 9, %17 ]
  call void @zend_wrong_parameter_error(i32 noundef %.066, i32 noundef %.067, ptr noundef null, i32 noundef %.068, ptr noundef %.069) #14
  br label %30

22:                                               ; preds = %17, %8, %.thread
  %.2.ph = phi ptr [ %16, %.thread ], [ @.str.128, %8 ], [ %20, %17 ]
  %23 = load i8, ptr %.2.ph, align 1
  %24 = call ptr @php_get_uname(i8 noundef signext %23)
  store ptr %24, ptr %1, align 8
  %25 = getelementptr inbounds i8, ptr %24, i64 4
  %26 = load i32, ptr %25, align 4
  %27 = and i32 %26, 64
  %.not73 = icmp eq i32 %27, 0
  %28 = select i1 %.not73, i32 262, i32 6
  %29 = getelementptr inbounds i8, ptr %1, i64 8
  store i32 %28, ptr %29, align 8
  br label %30

30:                                               ; preds = %22, %21
  ret void
}